; Function Attrs: null_pointer_is_valid sspstrong uwtable
define internal i32 @dissect_ldap_T_or_item(i1 zeroext %0, ptr noundef %1, i32 noundef %2, ptr noundef %3, ptr noundef %4, i32 noundef %5) #0 {
  %7 = tail call fastcc i32 @dissect_ldap_Filter(ptr noundef %1, i32 noundef %2, ptr noundef %3, ptr noundef %4, i32 noundef %5)
  %8 = load ptr, ptr @or_filter_string, align 8
  %.not = icmp eq ptr %8, null
  br i1 %.not, label %16, label %9

9:                                                ; preds = %6
  %10 = getelementptr inbounds nuw i8, ptr %3, i64 16
  %11 = load ptr, ptr %10, align 8
  %12 = getelementptr inbounds nuw i8, ptr %11, i64 408
  %13 = load ptr, ptr %12, align 8
  %14 = load ptr, ptr @Filter_string, align 8
  %15 = tail call noalias ptr (ptr, ptr, ...) @wmem_strdup_printf(ptr noundef %13, ptr noundef nonnull @.str.899, ptr noundef nonnull %8, ptr noundef %14)
  br label %18

16:                                               ; preds = %6
  %17 = load ptr, ptr @Filter_string, align 8
  br label %18

18:                                               ; preds = %16, %9
  %storemerge = phi ptr [ %17, %16 ], [ %15, %9 ]
  store ptr %storemerge, ptr @or_filter_string, align 8
  ret i32 %7
}